; Function Attrs: nounwind uwtable
define i32 @EVP_DecryptInit(ptr noundef %0, ptr noundef %1, ptr noundef %2, ptr noundef %3) local_unnamed_addr #0 {
  %.not.i = icmp eq ptr %1, null
  br i1 %.not.i, label %EVP_CipherInit.exit, label %.split7.i

.split7.i:                                        ; preds = %4
  %5 = tail call i32 @EVP_CIPHER_CTX_reset(ptr noundef %0)
  br label %EVP_CipherInit.exit

EVP_CipherInit.exit:                              ; preds = %4, %.split7.i
  %6 = tail call fastcc i32 @evp_cipher_init_internal(ptr noundef %0, ptr noundef %1, ptr noundef null, ptr noundef %2, ptr noundef %3, i32 noundef 0, i8 noundef zeroext 0, ptr noundef null)
  ret i32 %6
}